; Function Attrs: mustprogress nounwind uwtable
define internal fastcc void @_ZN4llvm15SmallVectorImplISt4pairINS_11SmallVectorINS_5MachO6TargetELj5EEESt6vectorIN12_GLOBAL__N_110JSONSymbolESaIS8_EEEE5clearEv(ptr noundef nonnull align 8 dereferenceable(16) %0) unnamed_addr #0 align 2 {
  %.val = load ptr, ptr %0, align 8
  %2 = tail call noundef i64 @_ZNK4llvm15SmallVectorBaseIjE4sizeEv(ptr noundef nonnull align 8 dereferenceable(16) %0) #17
  %.not4.i = icmp eq i64 %2, 0
  br i1 %.not4.i, label %_ZN4llvm23SmallVectorTemplateBaseISt4pairINS_11SmallVectorINS_5MachO6TargetELj5EEESt6vectorIN12_GLOBAL__N_110JSONSymbolESaIS8_EEELb0EE13destroy_rangeEPSB_SD_.exit, label %.lr.ph.i.preheader

.lr.ph.i.preheader:                               ; preds = %1
  %3 = getelementptr inbounds %"struct.std::pair.132", ptr %.val, i64 %2
  br label %.lr.ph.i

.lr.ph.i:                                         ; preds = %.lr.ph.i.preheader, %_ZNSt4pairIN4llvm11SmallVectorINS0_5MachO6TargetELj5EEESt6vectorIN12_GLOBAL__N_110JSONSymbolESaIS7_EEED2Ev.exit.i
  %.05.i = phi ptr [ %4, %_ZNSt4pairIN4llvm11SmallVectorINS0_5MachO6TargetELj5EEESt6vectorIN12_GLOBAL__N_110JSONSymbolESaIS7_EEED2Ev.exit.i ], [ %3, %.lr.ph.i.preheader ]
  %4 = getelementptr inbounds i8, ptr %.05.i, i64 -160
  %5 = getelementptr inbounds i8, ptr %.05.i, i64 -24
  %6 = load ptr, ptr %5, align 8
  %7 = getelementptr inbounds i8, ptr %.05.i, i64 -16
  %8 = load ptr, ptr %7, align 8
  %.not4.i.i.i.i.i.i = icmp eq ptr %6, %8
  br i1 %.not4.i.i.i.i.i.i, label %_ZSt8_DestroyIPN12_GLOBAL__N_110JSONSymbolES1_EvT_S3_RSaIT0_E.exit.i.i.i, label %.lr.ph.i.i.i.i.i.i

.lr.ph.i.i.i.i.i.i:                               ; preds = %.lr.ph.i, %.lr.ph.i.i.i.i.i.i
  %.05.i.i.i.i.i.i = phi ptr [ %10, %.lr.ph.i.i.i.i.i.i ], [ %6, %.lr.ph.i ]
  %9 = getelementptr inbounds nuw i8, ptr %.05.i.i.i.i.i.i, i64 8
  tail call void @_ZNSt7__cxx1112basic_stringIcSt11char_traitsIcESaIcEED1Ev(ptr noundef nonnull align 8 dereferenceable(32) %9) #17
  %10 = getelementptr inbounds i8, ptr %.05.i.i.i.i.i.i, i64 48
  %.not.i.i.i.i.i.i = icmp eq ptr %10, %8
  br i1 %.not.i.i.i.i.i.i, label %_ZSt8_DestroyIPN12_GLOBAL__N_110JSONSymbolES1_EvT_S3_RSaIT0_E.exitthread-pre-split.i.i.i, label %.lr.ph.i.i.i.i.i.i, !llvm.loop !333

_ZSt8_DestroyIPN12_GLOBAL__N_110JSONSymbolES1_EvT_S3_RSaIT0_E.exitthread-pre-split.i.i.i: ; preds = %.lr.ph.i.i.i.i.i.i
  %.val.pr.i.i.i = load ptr, ptr %5, align 8
  br label %_ZSt8_DestroyIPN12_GLOBAL__N_110JSONSymbolES1_EvT_S3_RSaIT0_E.exit.i.i.i

_ZSt8_DestroyIPN12_GLOBAL__N_110JSONSymbolES1_EvT_S3_RSaIT0_E.exit.i.i.i: ; preds = %_ZSt8_DestroyIPN12_GLOBAL__N_110JSONSymbolES1_EvT_S3_RSaIT0_E.exitthread-pre-split.i.i.i, %.lr.ph.i
  %.val.i.i.i = phi ptr [ %.val.pr.i.i.i, %_ZSt8_DestroyIPN12_GLOBAL__N_110JSONSymbolES1_EvT_S3_RSaIT0_E.exitthread-pre-split.i.i.i ], [ %6, %.lr.ph.i ]
  %.not.i.i.i.i.i = icmp eq ptr %.val.i.i.i, null
  br i1 %.not.i.i.i.i.i, label %_ZNSt6vectorIN12_GLOBAL__N_110JSONSymbolESaIS1_EED2Ev.exit.i.i, label %11

11:                                               ; preds = %_ZSt8_DestroyIPN12_GLOBAL__N_110JSONSymbolES1_EvT_S3_RSaIT0_E.exit.i.i.i
  %12 = getelementptr inbounds i8, ptr %.05.i, i64 -8
  %.val1.i.i.i = load ptr, ptr %12, align 8
  %13 = ptrtoint ptr %.val1.i.i.i to i64
  %14 = ptrtoint ptr %.val.i.i.i to i64
  %15 = sub i64 %13, %14
  tail call void @_ZdlPvm(ptr noundef nonnull %.val.i.i.i, i64 noundef %15) #20
  br label %_ZNSt6vectorIN12_GLOBAL__N_110JSONSymbolESaIS1_EED2Ev.exit.i.i

_ZNSt6vectorIN12_GLOBAL__N_110JSONSymbolESaIS1_EED2Ev.exit.i.i: ; preds = %11, %_ZSt8_DestroyIPN12_GLOBAL__N_110JSONSymbolES1_EvT_S3_RSaIT0_E.exit.i.i.i
  %16 = tail call noundef i64 @_ZNK4llvm15SmallVectorBaseIjE4sizeEv(ptr noundef nonnull align 8 dereferenceable(16) %4) #17
  %17 = load ptr, ptr %4, align 8
  %18 = getelementptr inbounds i8, ptr %.05.i, i64 -144
  %19 = icmp eq ptr %17, %18
  br i1 %19, label %_ZNSt4pairIN4llvm11SmallVectorINS0_5MachO6TargetELj5EEESt6vectorIN12_GLOBAL__N_110JSONSymbolESaIS7_EEED2Ev.exit.i, label %20

20:                                               ; preds = %_ZNSt6vectorIN12_GLOBAL__N_110JSONSymbolESaIS1_EED2Ev.exit.i.i
  tail call void @free(ptr noundef %17) #17
  br label %_ZNSt4pairIN4llvm11SmallVectorINS0_5MachO6TargetELj5EEESt6vectorIN12_GLOBAL__N_110JSONSymbolESaIS7_EEED2Ev.exit.i

_ZNSt4pairIN4llvm11SmallVectorINS0_5MachO6TargetELj5EEESt6vectorIN12_GLOBAL__N_110JSONSymbolESaIS7_EEED2Ev.exit.i: ; preds = %20, %_ZNSt6vectorIN12_GLOBAL__N_110JSONSymbolESaIS1_EED2Ev.exit.i.i
  %.not.i = icmp eq ptr %.val, %4
  br i1 %.not.i, label %_ZN4llvm23SmallVectorTemplateBaseISt4pairINS_11SmallVectorINS_5MachO6TargetELj5EEESt6vectorIN12_GLOBAL__N_110JSONSymbolESaIS8_EEELb0EE13destroy_rangeEPSB_SD_.exit, label %.lr.ph.i, !llvm.loop !351

_ZN4llvm23SmallVectorTemplateBaseISt4pairINS_11SmallVectorINS_5MachO6TargetELj5EEESt6vectorIN12_GLOBAL__N_110JSONSymbolESaIS8_EEELb0EE13destroy_rangeEPSB_SD_.exit: ; preds = %_ZNSt4pairIN4llvm11SmallVectorINS0_5MachO6TargetELj5EEESt6vectorIN12_GLOBAL__N_110JSONSymbolESaIS7_EEED2Ev.exit.i, %1
  %21 = getelementptr inbounds nuw i8, ptr %0, i64 8
  store i32 0, ptr %21, align 8
  ret void
}